target datalayout = "e-m:e-p270:32:32-p271:32:32-p272:64:64-i64:64-i128:128-f80:128-n8:16:32:64-S128"
target triple = "x86_64-pc-linux-gnu"

%class.SATBMarkQueueSet = type <{ %class.PtrQueueSet, [128 x i8], %class.PaddedEnd, i64, i64, i64, i8, [96 x i8], [7 x i8] }>
%class.PtrQueueSet = type { ptr, ptr }
%class.PaddedEnd = type { %class.PaddedEndImpl }
%class.PaddedEndImpl = type { %class.LockFreeStack, [120 x i8] }
%class.LockFreeStack = type { ptr }
%class.BufferNode = type { i32, i32, ptr, [1 x ptr] }
%"struct.Atomic::StoreImpl.7" = type { i8 }
%"struct.Atomic::PlatformStore" = type { i8 }
%"struct.Atomic::XchgImpl" = type { i8 }
%"struct.Atomic::PlatformXchg" = type { i8 }

; Function Attrs: mustprogress nounwind uwtable
define linkonce_odr hidden noundef ptr @_ZNK6Atomic12PlatformXchgILm8EEclIP10BufferNodeEET_PVS5_S5_19atomic_memory_order(ptr noundef nonnull align 1 dereferenceable(1) %0, ptr noundef %1, ptr noundef %2, i32 noundef %3) #1 comdat align 2 {
  %5 = alloca ptr, align 8
  %6 = alloca ptr, align 8
  %7 = alloca ptr, align 8
  %8 = alloca i32, align 4
  store ptr %0, ptr %5, align 8
  store ptr %1, ptr %6, align 8
  store ptr %2, ptr %7, align 8
  store i32 %3, ptr %8, align 4
  %9 = load ptr, ptr %7, align 8
  %10 = load ptr, ptr %6, align 8
  %11 = call ptr asm sideeffect "xchgq ($2),$0", "=r,0,r,~{memory},~{dirflag},~{fpsr},~{flags}"(ptr %9, ptr %10) #6, !srcloc !15
  store ptr %11, ptr %7, align 8
  %12 = load ptr, ptr %7, align 8
  ret ptr %12
}

; Function Attrs: mustprogress nounwind uwtable
define linkonce_odr hidden noundef ptr @_ZNK6Atomic8XchgImplIP10BufferNodeS2_vEclEPVS2_S2_19atomic_memory_order(ptr noundef nonnull align 1 dereferenceable(1) %0, ptr noundef %1, ptr noundef %2, i32 noundef %3) #1 comdat align 2 {
  %5 = alloca ptr, align 8
  %6 = alloca ptr, align 8
  %7 = alloca ptr, align 8
  %8 = alloca i32, align 4
  %9 = alloca ptr, align 8
  %10 = alloca %"struct.Atomic::PlatformXchg", align 1
  store ptr %0, ptr %5, align 8
  store ptr %1, ptr %6, align 8
  store ptr %2, ptr %7, align 8
  store i32 %3, ptr %8, align 4
  %11 = load ptr, ptr %7, align 8
  store ptr %11, ptr %9, align 8
  %12 = load ptr, ptr %6, align 8
  %13 = load ptr, ptr %9, align 8
  %14 = load i32, ptr %8, align 4
  %15 = call noundef ptr @_ZNK6Atomic12PlatformXchgILm8EEclIP10BufferNodeEET_PVS5_S5_19atomic_memory_order(ptr noundef nonnull align 1 dereferenceable(1) %10, ptr noundef %12, ptr noundef %13, i32 noundef %14)
  ret ptr %15
}

; Function Attrs: mustprogress nounwind uwtable
define linkonce_odr hidden void @_ZNK6Atomic13PlatformStoreILm8EEclImEEvPVT_S3_(ptr noundef nonnull align 1 dereferenceable(1) %0, ptr noundef %1, i64 noundef %2) #1 comdat align 2 {
  %4 = alloca ptr, align 8
  %5 = alloca ptr, align 8
  %6 = alloca i64, align 8
  store ptr %0, ptr %4, align 8
  store ptr %1, ptr %5, align 8
  store i64 %2, ptr %6, align 8
  %7 = load i64, ptr %6, align 8
  %8 = load ptr, ptr %5, align 8
  store volatile i64 %7, ptr %8, align 8
  ret void
}

; Function Attrs: mustprogress nounwind uwtable
define linkonce_odr hidden noundef ptr @_ZN6Atomic4xchgIP10BufferNodeS2_EET_PVS3_T0_19atomic_memory_order(ptr noundef %0, ptr noundef %1, i32 noundef %2) #1 comdat align 2 {
  %4 = alloca ptr, align 8
  %5 = alloca ptr, align 8
  %6 = alloca i32, align 4
  %7 = alloca %"struct.Atomic::XchgImpl", align 1
  store ptr %0, ptr %4, align 8
  store ptr %1, ptr %5, align 8
  store i32 %2, ptr %6, align 4
  %8 = load ptr, ptr %4, align 8
  %9 = load ptr, ptr %5, align 8
  %10 = load i32, ptr %6, align 4
  %11 = call noundef ptr @_ZNK6Atomic8XchgImplIP10BufferNodeS2_vEclEPVS2_S2_19atomic_memory_order(ptr noundef nonnull align 1 dereferenceable(1) %7, ptr noundef %8, ptr noundef %9, i32 noundef %10)
  ret ptr %11
}

; Function Attrs: mustprogress nounwind uwtable
define linkonce_odr hidden void @_ZNK6Atomic9StoreImplImmNS_13PlatformStoreILm8EEEvEclEPVmm(ptr noundef nonnull align 1 dereferenceable(1) %0, ptr noundef %1, i64 noundef %2) #1 comdat align 2 {
  %4 = alloca ptr, align 8
  %5 = alloca ptr, align 8
  %6 = alloca i64, align 8
  %7 = alloca %"struct.Atomic::PlatformStore", align 1
  store ptr %0, ptr %4, align 8
  store ptr %1, ptr %5, align 8
  store i64 %2, ptr %6, align 8
  %8 = load ptr, ptr %5, align 8
  %9 = load i64, ptr %6, align 8
  call void @_ZNK6Atomic13PlatformStoreILm8EEclImEEvPVT_S3_(ptr noundef nonnull align 1 dereferenceable(1) %7, ptr noundef %8, i64 noundef %9)
  ret void
}

; Function Attrs: mustprogress nounwind uwtable
define linkonce_odr hidden void @_ZN10BufferNode8set_nextEPS_(ptr noundef nonnull align 8 dereferenceable(24) %0, ptr noundef %1) #1 comdat align 2 {
  %3 = alloca ptr, align 8
  %4 = alloca ptr, align 8
  store ptr %0, ptr %3, align 8
  store ptr %1, ptr %4, align 8
  %5 = load ptr, ptr %3, align 8
  %6 = load ptr, ptr %4, align 8
  %7 = getelementptr inbounds %class.BufferNode, ptr %5, i32 0, i32 2
  store volatile ptr %6, ptr %7, align 8
  ret void
}

; Function Attrs: mustprogress nounwind uwtable
define linkonce_odr hidden noundef ptr @_ZNK10BufferNode4nextEv(ptr noundef nonnull align 8 dereferenceable(24) %0) #1 comdat align 2 {
  %2 = alloca ptr, align 8
  store ptr %0, ptr %2, align 8
  %3 = load ptr, ptr %2, align 8
  %4 = getelementptr inbounds %class.BufferNode, ptr %3, i32 0, i32 2
  %5 = load volatile ptr, ptr %4, align 8
  ret ptr %5
}

; Function Attrs: mustprogress nounwind uwtable
define linkonce_odr hidden noundef ptr @_ZN13LockFreeStackI10BufferNodeXadL_ZNS0_8next_ptrERS0_EEE7pop_allEv(ptr noundef nonnull align 8 dereferenceable(8) %0) #1 comdat align 2 {
  %2 = alloca ptr, align 8
  store ptr %0, ptr %2, align 8
  %3 = load ptr, ptr %2, align 8
  %4 = getelementptr inbounds %class.LockFreeStack, ptr %3, i32 0, i32 0
  %5 = call noundef ptr @_ZN6Atomic4xchgIP10BufferNodeS2_EET_PVS3_T0_19atomic_memory_order(ptr noundef %4, ptr noundef null, i32 noundef 8)
  ret ptr %5
}

; Function Attrs: mustprogress nounwind uwtable
define linkonce_odr hidden void @_ZN6Atomic5storeImmEEvPVT_T0_(ptr noundef %0, i64 noundef %1) #1 comdat align 2 {
  %3 = alloca ptr, align 8
  %4 = alloca i64, align 8
  %5 = alloca %"struct.Atomic::StoreImpl.7", align 1
  store ptr %0, ptr %3, align 8
  store i64 %1, ptr %4, align 8
  %6 = load ptr, ptr %3, align 8
  %7 = load i64, ptr %4, align 8
  call void @_ZNK6Atomic9StoreImplImmNS_13PlatformStoreILm8EEEvEclEPVmm(ptr noundef nonnull align 1 dereferenceable(1) %5, ptr noundef %6, i64 noundef %7)
  ret void
}

; Function Attrs: mustprogress nounwind uwtable
define hidden void @_ZN16SATBMarkQueueSet25abandon_completed_buffersEv(ptr noundef nonnull align 8 dereferenceable(393) %0) #1 align 2 {
  %2 = alloca ptr, align 8
  %3 = alloca ptr, align 8
  %4 = alloca ptr, align 8
  store ptr %0, ptr %2, align 8
  %5 = load ptr, ptr %2, align 8
  %6 = getelementptr inbounds %class.SATBMarkQueueSet, ptr %5, i32 0, i32 3
  call void @_ZN6Atomic5storeImmEEvPVT_T0_(ptr noundef %6, i64 noundef 0)
  %7 = getelementptr inbounds %class.SATBMarkQueueSet, ptr %5, i32 0, i32 2
  %8 = call noundef ptr @_ZN13LockFreeStackI10BufferNodeXadL_ZNS0_8next_ptrERS0_EEE7pop_allEv(ptr noundef nonnull align 8 dereferenceable(8) %7)
  store ptr %8, ptr %3, align 8
  br label %9

9:                                                ; preds = %12, %1
  %10 = load ptr, ptr %3, align 8
  %11 = icmp ne ptr %10, null
  br i1 %11, label %12, label %18

12:                                               ; preds = %9
  %13 = load ptr, ptr %3, align 8
  store ptr %13, ptr %4, align 8
  %14 = load ptr, ptr %4, align 8
  %15 = call noundef ptr @_ZNK10BufferNode4nextEv(ptr noundef nonnull align 8 dereferenceable(24) %14)
  store ptr %15, ptr %3, align 8
  %16 = load ptr, ptr %4, align 8
  call void @_ZN10BufferNode8set_nextEPS_(ptr noundef nonnull align 8 dereferenceable(24) %16, ptr noundef null)
  %17 = load ptr, ptr %4, align 8
  call void @_ZN11PtrQueueSet17deallocate_bufferEP10BufferNode(ptr noundef nonnull align 8 dereferenceable(16) %5, ptr noundef %17)
  br label %9, !llvm.loop !6

18:                                               ; preds = %9
  ret void
}