; Function Attrs: mustprogress nounwind uwtable
define hidden void @_ZN16SATBMarkQueueSet25abandon_completed_buffersEv(ptr noundef nonnull align 8 dereferenceable(393) %0) local_unnamed_addr #0 align 2 {
  %2 = getelementptr inbounds i8, ptr %0, i64 272
  store volatile i64 0, ptr %2, align 8
  %3 = getelementptr inbounds i8, ptr %0, i64 144
  %4 = tail call noundef ptr asm sideeffect "xchgq ($2),$0", "=r,0,r,~{memory},~{dirflag},~{fpsr},~{flags}"(ptr null, ptr nonnull %3) #10, !srcloc !6
  %.not6 = icmp eq ptr %4, null
  br i1 %.not6, label %._crit_edge, label %.lr.ph

.lr.ph:                                           ; preds = %1, %.lr.ph
  %.07 = phi ptr [ %6, %.lr.ph ], [ %4, %1 ]
  %5 = getelementptr inbounds i8, ptr %.07, i64 8
  %6 = load volatile ptr, ptr %5, align 8
  store volatile ptr null, ptr %5, align 8
  tail call void @_ZN11PtrQueueSet17deallocate_bufferEP10BufferNode(ptr noundef nonnull align 8 dereferenceable(16) %0, ptr noundef nonnull %.07) #10
  %.not = icmp eq ptr %6, null
  br i1 %.not, label %._crit_edge, label %.lr.ph, !llvm.loop !7

._crit_edge:                                      ; preds = %.lr.ph, %1
  ret void
}